Certificate:
    Data:
        Version: 3 (0x2)
        Serial Number: 305419897 (0x12345679)
    Signature Algorithm: sha256WithRSAEncryption
        Issuer: CN=SRK1_sha256_2048_65537_v3_ca
        Validity
            Not Before: Jun 29 07:34:44 2018 GMT
            Not After : Jun 26 07:34:44 2028 GMT
        Subject: CN=CSF1_1_sha256_2048_65537_v3_usr
        Subject Public Key Info:
            Public Key Algorithm: rsaEncryption
                Public-Key: (2048 bit)
                Modulus:
                    00:be:b8:af:0c:d7:37:39:dd:36:1a:d1:a0:5e:98:
                    cf:33:60:ff:e8:32:25:ef:f5:af:2b:34:89:9a:ea:
                    27:c3:75:56:e7:0a:70:37:c6:08:16:dc:3a:a8:17:
                    4a:db:d3:b1:ea:a5:70:b6:74:42:35:01:97:65:6c:
                    03:dc:38:77:c4:a4:68:17:07:08:88:0f:f0:01:d8:
                    f6:74:a2:c3:37:06:e8:ba:46:e0:df:3b:d8:02:58:
                    a9:d0:3a:a0:05:4f:5f:1d:82:80:a0:6b:c2:b9:f9:
                    45:d4:26:56:1e:c9:b4:a0:ce:76:c9:f1:70:4a:e3:
                    45:3a:3e:e8:f9:28:a4:b5:64:1c:c0:92:16:0e:6e:
                    e1:78:eb:9b:6c:6b:73:b8:d0:89:bc:70:38:8d:2d:
                    12:1c:f0:ae:06:ab:a9:48:2a:c0:79:47:ea:96:90:
                    1e:70:be:23:39:99:c0:7c:61:80:83:c2:8a:e8:ed:
                    81:06:23:31:fb:d6:e0:23:7e:87:a6:0b:32:e5:fa:
                    6a:c7:29:69:f2:0e:32:87:61:20:ff:5c:62:3d:9d:
                    17:82:4d:ee:4f:10:4d:39:16:24:c9:96:9a:4d:25:
                    72:87:53:5c:fa:e7:89:64:d6:3b:62:96:79:c9:f9:
                    a7:70:db:bb:7e:46:09:bc:2e:49:73:1e:60:82:01:
                    9e:91
                Exponent: 65537 (0x10001)
        X509v3 extensions:
            X509v3 Basic Constraints: 
                CA:FALSE
            Netscape Comment: 
                OpenSSL Generated Certificate
            X509v3 Subject Key Identifier: 
                04:53:25:E9:68:28:D8:4A:C6:3B:1A:6D:44:78:86:61:7B:C5:B9:75
            X509v3 Authority Key Identifier: 
                keyid:61:41:BB:7F:BE:97:FE:12:8B:67:56:C5:D4:FA:A1:40:8C:52:22:D6

    Signature Algorithm: sha256WithRSAEncryption
         5e:42:6f:56:90:21:04:83:60:c2:bc:9f:b7:3b:db:53:4f:c3:
         10:86:0e:ee:3f:08:6d:61:f1:69:ad:82:f8:ec:b7:fa:ed:a3:
         c9:8d:36:e9:92:2d:e8:2a:4f:f1:f0:ba:63:f5:f7:1b:7a:44:
         19:12:8c:8c:84:a9:6e:d7:80:ab:85:d8:79:12:49:38:5a:59:
         c9:0b:01:3d:82:7c:c7:2a:79:b7:2d:ea:f4:8d:76:da:92:c0:
         91:7d:81:11:b5:db:9f:31:1c:71:08:c6:2f:b8:50:60:75:d0:
         40:b7:58:83:3b:cb:0b:be:47:c8:93:ab:7e:a4:90:4c:c8:b9:
         48:0b:ce:31:da:8e:fc:09:bc:64:10:75:e1:69:36:1b:f5:ce:
         87:f6:70:40:f7:eb:c9:96:80:2f:8a:20:c0:a4:42:6c:38:74:
         14:f0:b0:cc:a3:7d:e5:82:5c:a8:7b:01:0b:e2:c3:18:d9:7a:
         98:3a:d0:49:be:4f:fb:1b:53:1d:d7:c0:d8:d7:e5:6b:ca:8d:
         e8:68:f7:00:e9:db:1d:27:71:e0:48:94:60:16:d3:85:21:2d:
         a2:9b:54:a6:1d:09:ee:e8:e2:89:61:9b:0d:45:71:7c:4e:69:
         b7:c8:0f:6e:f8:3f:86:29:aa:70:5b:9d:14:27:54:58:98:25:
         49:29:79:5d
-----BEGIN CERTIFICATE-----
MIIDSjCCAjKgAwIBAgIEEjRWeTANBgkqhkiG9w0BAQsFADAnMSUwIwYDVQQDDBxT
UksxX3NoYTI1Nl8yMDQ4XzY1NTM3X3YzX2NhMB4XDTE4MDYyOTA3MzQ0NFoXDTI4
MDYyNjA3MzQ0NFowKjEoMCYGA1UEAwwfQ1NGMV8xX3NoYTI1Nl8yMDQ4XzY1NTM3
X3YzX3VzcjCCASIwDQYJKoZIhvcNAQEBBQADggEPADCCAQoCggEBAL64rwzXNznd
NhrRoF6YzzNg/+gyJe/1rys0iZrqJ8N1VucKcDfGCBbcOqgXStvTseqlcLZ0QjUB
l2VsA9w4d8SkaBcHCIgP8AHY9nSiwzcG6LpG4N872AJYqdA6oAVPXx2CgKBrwrn5
RdQmVh7JtKDOdsnxcErjRTo+6PkopLVkHMCSFg5u4Xjrm2xrc7jQibxwOI0tEhzw
rgarqUgqwHlH6paQHnC+IzmZwHxhgIPCiujtgQYjMfvW4CN+h6YLMuX6ascpafIO
ModhIP9cYj2dF4JN7k8QTTkWJMmWmk0lcodTXPrniWTWO2KWecn5p3Dbu35GCbwu
SXMeYIIBnpECAwEAAaN7MHkwCQYDVR0TBAIwADAsBglghkgBhvhCAQ0EHxYdT3Bl
blNTTCBHZW5lcmF0ZWQgQ2VydGlmaWNhdGUwHQYDVR0OBBYEFARTJeloKNhKxjsa
bUR4hmF7xbl1MB8GA1UdIwQYMBaAFGFBu3++l/4Si2dWxdT6oUCMUiLWMA0GCSqG
SIb3DQEBCwUAA4IBAQBeQm9WkCEEg2DCvJ+3O9tTT8MQhg7uPwhtYfFprYL47Lf6
7aPJjTbpki3oKk/x8Lpj9fcbekQZEoyMhKlu14Crhdh5Ekk4WlnJCwE9gnzHKnm3
Ler0jXbaksCRfYERtdufMRxxCMYvuFBgddBAt1iDO8sLvkfIk6t+pJBMyLlIC84x
2o78CbxkEHXhaTYb9c6H9nBA9+vJloAviiDApEJsOHQU8LDMo33lglyoewEL4sMY
2XqYOtBJvk/7G1Md18DY1+Vryo3oaPcA6dsdJ3HgSJRgFtOFIS2im1SmHQnu6OKJ
YZsNRXF8Tmm3yA9u+D+GKapwW50UJ1RYmCVJKXld
-----END CERTIFICATE-----
