Certificate:
    Data:
        Version: 3 (0x2)
        Serial Number: 305419903 (0x1234567f)
    Signature Algorithm: sha256WithRSAEncryption
        Issuer: CN=SRK3_sha256_2048_65537_v3_ca
        Validity
            Not Before: Jun 29 07:34:45 2018 GMT
            Not After : Jun 26 07:34:45 2028 GMT
        Subject: CN=CSF3_1_sha256_2048_65537_v3_usr
        Subject Public Key Info:
            Public Key Algorithm: rsaEncryption
                Public-Key: (2048 bit)
                Modulus:
                    00:d3:23:33:90:6d:1a:a3:1f:80:c6:b3:4a:64:65:
                    f5:47:60:87:26:36:1c:2c:0c:64:ee:ed:2c:61:08:
                    a0:68:6c:f0:a0:6f:49:f9:8d:5f:0c:f6:a9:0e:9b:
                    6d:27:22:c7:75:a4:8d:6c:e5:3c:83:c0:65:c9:68:
                    e1:6d:b8:69:25:eb:f6:4b:37:ca:f6:5b:be:91:d4:
                    16:79:f8:b7:b7:50:af:52:b9:8a:b4:b3:a9:69:02:
                    b4:e6:f6:6e:89:8c:04:77:2d:4b:6f:67:28:b6:1b:
                    a1:85:44:83:6d:5f:d9:75:40:5d:79:de:7a:69:47:
                    f5:45:b8:94:47:35:9e:12:e5:dd:74:45:6d:99:ee:
                    b8:60:ab:f1:eb:3a:84:e4:dd:49:fc:ed:00:70:62:
                    fc:ba:87:80:07:13:d4:ae:48:08:5e:80:7a:0d:1e:
                    2e:81:a0:53:59:38:64:f1:1e:ab:8f:34:c6:bc:ca:
                    6f:63:f4:4b:f3:3c:e5:a6:5d:3d:56:1d:64:e1:c2:
                    cf:c8:a8:2a:e5:17:c7:0b:e1:4c:47:72:23:9f:47:
                    6e:36:8e:07:34:46:33:4a:e8:6b:4a:d7:63:ac:95:
                    60:52:6e:c3:fd:68:c8:de:e1:1b:73:77:87:14:d1:
                    6b:83:8a:f0:53:cc:f8:da:19:a6:c9:ee:6b:4c:51:
                    01:5f
                Exponent: 65537 (0x10001)
        X509v3 extensions:
            X509v3 Basic Constraints: 
                CA:FALSE
            Netscape Comment: 
                OpenSSL Generated Certificate
            X509v3 Subject Key Identifier: 
                2D:25:0B:B1:6E:6C:AE:4D:29:3F:CA:A0:CA:59:DE:23:0E:C0:83:93
            X509v3 Authority Key Identifier: 
                keyid:98:C3:12:4F:F3:33:4D:A7:0C:44:69:7B:99:B7:44:48:31:C4:8F:9F

    Signature Algorithm: sha256WithRSAEncryption
         1c:ab:0b:c9:c0:d0:90:9a:2c:62:2a:c6:0b:9a:ab:65:f4:34:
         88:e5:0a:bc:89:a8:dd:c4:ca:d5:38:69:28:56:91:f3:99:3d:
         93:8a:54:0f:3d:a4:4a:ae:60:9c:03:ed:aa:1c:6c:94:4c:32:
         d4:52:48:1c:cb:db:12:56:ef:fa:00:51:19:7d:01:7a:17:31:
         41:cb:bb:a4:12:9b:40:a0:6f:40:cb:1b:7e:59:2d:bf:b9:a1:
         47:d8:89:ad:d2:eb:e3:41:cf:4f:19:63:2a:7f:78:a8:1c:bb:
         de:e9:35:b0:8e:68:c5:fe:c0:04:e5:b7:72:08:ec:bd:ea:d7:
         4e:52:b7:16:61:c8:7a:a4:61:f5:b6:c9:c5:bf:d3:dc:5b:bb:
         0f:c4:01:be:40:f6:6e:2a:c5:30:4c:61:33:1e:18:f9:bf:9d:
         5f:0e:22:79:a7:4d:f5:09:01:61:0f:c0:13:c2:92:7a:41:aa:
         de:b4:e0:d6:98:e0:c5:c1:a9:6d:b5:65:fe:dd:1f:c3:a2:6f:
         60:fd:85:2f:09:dc:13:60:c0:59:a1:9f:c6:3c:cf:5d:00:95:
         05:47:8d:33:48:7b:8c:14:22:a2:40:4d:7e:78:8b:19:b9:11:
         fb:f4:30:8a:eb:65:0e:b0:87:d0:bf:67:ab:e8:93:f6:f4:70:
         e5:44:3a:33
-----BEGIN CERTIFICATE-----
MIIDSjCCAjKgAwIBAgIEEjRWfzANBgkqhkiG9w0BAQsFADAnMSUwIwYDVQQDDBxT
UkszX3NoYTI1Nl8yMDQ4XzY1NTM3X3YzX2NhMB4XDTE4MDYyOTA3MzQ0NVoXDTI4
MDYyNjA3MzQ0NVowKjEoMCYGA1UEAwwfQ1NGM18xX3NoYTI1Nl8yMDQ4XzY1NTM3
X3YzX3VzcjCCASIwDQYJKoZIhvcNAQEBBQADggEPADCCAQoCggEBANMjM5BtGqMf
gMazSmRl9UdghyY2HCwMZO7tLGEIoGhs8KBvSfmNXwz2qQ6bbScix3WkjWzlPIPA
Zclo4W24aSXr9ks3yvZbvpHUFnn4t7dQr1K5irSzqWkCtOb2bomMBHctS29nKLYb
oYVEg21f2XVAXXneemlH9UW4lEc1nhLl3XRFbZnuuGCr8es6hOTdSfztAHBi/LqH
gAcT1K5ICF6Aeg0eLoGgU1k4ZPEeq480xrzKb2P0S/M85aZdPVYdZOHCz8ioKuUX
xwvhTEdyI59HbjaOBzRGM0roa0rXY6yVYFJuw/1oyN7hG3N3hxTRa4OK8FPM+NoZ
psnua0xRAV8CAwEAAaN7MHkwCQYDVR0TBAIwADAsBglghkgBhvhCAQ0EHxYdT3Bl
blNTTCBHZW5lcmF0ZWQgQ2VydGlmaWNhdGUwHQYDVR0OBBYEFC0lC7FubK5NKT/K
oMpZ3iMOwIOTMB8GA1UdIwQYMBaAFJjDEk/zM02nDERpe5m3REgxxI+fMA0GCSqG
SIb3DQEBCwUAA4IBAQAcqwvJwNCQmixiKsYLmqtl9DSI5Qq8iajdxMrVOGkoVpHz
mT2TilQPPaRKrmCcA+2qHGyUTDLUUkgcy9sSVu/6AFEZfQF6FzFBy7ukEptAoG9A
yxt+WS2/uaFH2Imt0uvjQc9PGWMqf3ioHLve6TWwjmjF/sAE5bdyCOy96tdOUrcW
Ych6pGH1tsnFv9PcW7sPxAG+QPZuKsUwTGEzHhj5v51fDiJ5p031CQFhD8ATwpJ6
QaretODWmODFwalttWX+3R/Dom9g/YUvCdwTYMBZoZ/GPM9dAJUFR40zSHuMFCKi
QE1+eIsZuRH79DCK62UOsIfQv2er6JP29HDlRDoz
-----END CERTIFICATE-----
