Certificate:
    Data:
        Version: 3 (0x2)
        Serial Number: 305419906 (0x12345682)
    Signature Algorithm: sha256WithRSAEncryption
        Issuer: CN=SRK4_sha256_2048_65537_v3_ca
        Validity
            Not Before: Jun 29 07:34:46 2018 GMT
            Not After : Jun 26 07:34:46 2028 GMT
        Subject: CN=CSF4_1_sha256_2048_65537_v3_usr
        Subject Public Key Info:
            Public Key Algorithm: rsaEncryption
                Public-Key: (2048 bit)
                Modulus:
                    00:be:83:56:de:ce:1c:29:5b:de:7b:20:be:e4:a8:
                    3f:db:f9:80:f3:ed:c6:88:95:49:da:68:bc:e6:35:
                    92:c6:cf:40:7d:f6:df:a3:18:ea:14:3f:7d:9b:7b:
                    04:07:b8:f2:5d:5c:4f:91:5e:84:92:cb:51:c2:fa:
                    20:39:e2:85:a7:32:78:a3:07:12:3b:f0:6a:ab:4c:
                    1a:b3:ab:6e:c7:62:ac:49:2e:0f:de:fd:89:7c:79:
                    58:3d:ce:1c:d8:61:4c:9e:ab:f1:7a:c5:c5:75:9b:
                    27:3c:a8:4e:5a:eb:a3:b2:96:d7:72:83:fc:c3:7f:
                    c1:3b:a9:9d:b8:71:0e:a0:40:14:50:da:2e:ec:50:
                    6c:cd:36:f4:25:3a:bc:ae:18:41:64:bf:e8:dd:74:
                    c5:3b:3a:7d:68:a0:53:1e:52:74:ea:52:a0:cf:74:
                    b4:91:53:a3:7a:f2:37:2a:de:64:a3:c1:de:2a:f3:
                    1d:78:f6:fe:3c:2a:13:0c:f8:98:2c:ee:67:1b:98:
                    72:f6:34:d4:bf:2b:28:bc:3a:a2:bc:8a:6e:96:49:
                    36:10:0a:88:16:df:82:29:f2:d2:19:0a:bf:c3:c9:
                    fa:d1:d1:e8:8a:89:d5:65:06:82:e6:b2:75:26:3d:
                    55:2e:be:0d:56:4f:d5:89:5f:97:01:19:9c:4a:98:
                    90:11
                Exponent: 65537 (0x10001)
        X509v3 extensions:
            X509v3 Basic Constraints: 
                CA:FALSE
            Netscape Comment: 
                OpenSSL Generated Certificate
            X509v3 Subject Key Identifier: 
                84:07:5F:EC:75:3A:D5:5B:68:09:1D:E6:AF:FD:50:57:6B:49:BD:C2
            X509v3 Authority Key Identifier: 
                keyid:7B:E1:8F:E7:61:BA:F5:74:CA:C9:02:66:91:85:19:00:1E:51:39:AE

    Signature Algorithm: sha256WithRSAEncryption
         5a:9f:fd:07:52:a2:23:09:b2:3f:4f:f2:e8:98:68:12:30:3d:
         ed:d2:97:96:66:e5:64:9f:9f:83:6e:ae:32:78:aa:d7:93:bb:
         04:59:05:70:14:93:81:27:b5:d6:fb:cb:6d:4a:5a:79:82:31:
         c0:9d:41:af:be:8a:ac:a9:9e:1e:66:ef:e2:1f:18:a1:b6:bb:
         a6:5f:36:95:10:40:cc:b7:72:e5:ff:3c:1a:39:70:59:70:4a:
         71:f0:50:d4:3b:92:23:bb:24:18:36:95:fd:7f:e3:af:c0:cc:
         f8:03:1f:17:d5:30:41:c6:45:0f:cf:ed:2f:f5:dd:fe:11:ee:
         45:7e:89:46:e2:b2:56:45:d3:4a:12:0c:a3:ef:36:b6:eb:7e:
         c5:1a:71:c4:6d:fd:29:ae:99:ee:fb:fd:c2:c6:c8:76:6e:d7:
         af:e2:96:72:d4:e9:2c:a4:0e:19:bd:a6:f5:2e:44:ae:ff:83:
         be:17:33:cd:ce:a6:a1:6a:9f:40:2f:e2:52:01:71:a7:44:6f:
         a8:40:83:2e:f9:34:3d:ea:8f:a5:b6:e2:bb:bf:de:a0:46:fe:
         aa:e1:fc:65:cc:e9:3b:c1:17:51:c8:35:0f:48:17:63:34:fc:
         e2:7f:f5:ca:0b:42:09:42:d9:8f:2d:9b:b9:eb:39:1c:e5:ca:
         a8:5e:68:d7
-----BEGIN CERTIFICATE-----
MIIDSjCCAjKgAwIBAgIEEjRWgjANBgkqhkiG9w0BAQsFADAnMSUwIwYDVQQDDBxT
Uks0X3NoYTI1Nl8yMDQ4XzY1NTM3X3YzX2NhMB4XDTE4MDYyOTA3MzQ0NloXDTI4
MDYyNjA3MzQ0NlowKjEoMCYGA1UEAwwfQ1NGNF8xX3NoYTI1Nl8yMDQ4XzY1NTM3
X3YzX3VzcjCCASIwDQYJKoZIhvcNAQEBBQADggEPADCCAQoCggEBAL6DVt7OHClb
3nsgvuSoP9v5gPPtxoiVSdpovOY1ksbPQH3236MY6hQ/fZt7BAe48l1cT5FehJLL
UcL6IDnihacyeKMHEjvwaqtMGrOrbsdirEkuD979iXx5WD3OHNhhTJ6r8XrFxXWb
JzyoTlrro7KW13KD/MN/wTupnbhxDqBAFFDaLuxQbM029CU6vK4YQWS/6N10xTs6
fWigUx5SdOpSoM90tJFTo3ryNyreZKPB3irzHXj2/jwqEwz4mCzuZxuYcvY01L8r
KLw6oryKbpZJNhAKiBbfginy0hkKv8PJ+tHR6IqJ1WUGguaydSY9VS6+DVZP1Ylf
lwEZnEqYkBECAwEAAaN7MHkwCQYDVR0TBAIwADAsBglghkgBhvhCAQ0EHxYdT3Bl
blNTTCBHZW5lcmF0ZWQgQ2VydGlmaWNhdGUwHQYDVR0OBBYEFIQHX+x1OtVbaAkd
5q/9UFdrSb3CMB8GA1UdIwQYMBaAFHvhj+dhuvV0yskCZpGFGQAeUTmuMA0GCSqG
SIb3DQEBCwUAA4IBAQBan/0HUqIjCbI/T/LomGgSMD3t0peWZuVkn5+Dbq4yeKrX
k7sEWQVwFJOBJ7XW+8ttSlp5gjHAnUGvvoqsqZ4eZu/iHxihtrumXzaVEEDMt3Ll
/zwaOXBZcEpx8FDUO5IjuyQYNpX9f+OvwMz4Ax8X1TBBxkUPz+0v9d3+Ee5FfolG
4rJWRdNKEgyj7za2637FGnHEbf0prpnu+/3Cxsh2btev4pZy1OkspA4Zvab1LkSu
/4O+FzPNzqahap9AL+JSAXGnRG+oQIMu+TQ96o+ltuK7v96gRv6q4fxlzOk7wRdR
yDUPSBdjNPzif/XKC0IJQtmPLZu56zkc5cqoXmjX
-----END CERTIFICATE-----
