Certificate:
    Data:
        Version: 3 (0x2)
        Serial Number: 305419898 (0x1234567a)
    Signature Algorithm: sha256WithRSAEncryption
        Issuer: CN=SRK1_sha256_2048_65537_v3_ca
        Validity
            Not Before: Jun 29 07:34:44 2018 GMT
            Not After : Jun 26 07:34:44 2028 GMT
        Subject: CN=IMG1_1_sha256_2048_65537_v3_usr
        Subject Public Key Info:
            Public Key Algorithm: rsaEncryption
                Public-Key: (2048 bit)
                Modulus:
                    00:c3:42:1e:32:3e:01:10:6b:dd:ae:92:76:65:41:
                    e4:b4:92:15:f5:a7:65:59:e8:c9:cd:48:d3:a5:55:
                    89:99:60:6c:7a:7d:9f:10:74:1f:ee:6c:94:c7:8f:
                    b4:e7:85:de:17:ad:f7:d5:c5:66:10:c8:fe:5f:72:
                    db:c8:75:bd:3c:61:e0:3d:48:b5:b2:df:64:a2:c9:
                    98:06:f5:0e:85:89:d5:ce:d4:ce:a5:f5:bb:25:6d:
                    e9:57:6b:4b:15:c0:ef:ca:a7:23:a3:43:06:db:d8:
                    5a:05:fa:47:e7:6b:0a:47:43:f7:47:8d:12:e8:25:
                    83:1e:62:1e:04:e7:25:0c:10:2e:7e:80:b6:cc:28:
                    58:99:a7:9e:25:40:34:2c:06:06:5e:f5:30:50:2e:
                    2a:37:fd:e0:80:ab:e8:0e:93:a1:dd:8e:1f:2e:2c:
                    8b:75:1f:38:c8:27:e5:a1:4b:fa:da:57:4c:cb:70:
                    ef:16:59:f1:fc:10:50:f8:f5:a5:a3:b3:19:a1:12:
                    4a:ad:95:45:11:fd:89:7b:42:81:97:30:0b:86:28:
                    7c:fa:5a:eb:c4:5c:4d:3a:54:23:03:4d:51:17:bc:
                    a4:5c:79:c1:e8:04:b2:85:57:46:fb:58:27:1f:22:
                    18:5a:58:21:33:15:6f:de:d6:5a:f3:a0:05:60:80:
                    2a:ed
                Exponent: 65537 (0x10001)
        X509v3 extensions:
            X509v3 Basic Constraints: 
                CA:FALSE
            Netscape Comment: 
                OpenSSL Generated Certificate
            X509v3 Subject Key Identifier: 
                17:09:F0:2A:D9:CD:C7:EE:F8:14:78:61:2F:60:7D:E6:B5:47:02:89
            X509v3 Authority Key Identifier: 
                keyid:61:41:BB:7F:BE:97:FE:12:8B:67:56:C5:D4:FA:A1:40:8C:52:22:D6

    Signature Algorithm: sha256WithRSAEncryption
         68:13:67:54:8d:d1:21:a7:e5:00:f1:eb:3a:9f:43:3d:32:2c:
         0b:4b:44:70:f2:f2:52:15:c3:e9:a4:a4:b2:0f:ba:54:e9:30:
         fe:22:af:4e:d2:d0:4b:48:b2:95:2a:97:df:c9:3f:21:87:a7:
         8b:10:40:74:35:74:c5:53:fa:c8:83:66:a5:ee:87:e5:67:0c:
         b8:a7:b2:a8:7e:a4:e4:77:6f:d2:56:06:6a:01:fb:78:78:3f:
         d2:59:23:c3:d1:a2:3c:c3:1f:45:fa:c6:53:57:38:14:9b:64:
         3a:71:81:51:5c:db:fb:0c:cf:6f:bd:44:6b:62:74:91:8a:b8:
         ad:51:9b:0e:87:44:b1:b6:4b:99:1d:ee:ad:21:c8:49:3a:16:
         d3:47:28:c4:cd:36:e3:96:d1:f9:b2:99:bb:e9:64:9a:40:4f:
         a6:4d:64:50:2e:e1:a3:59:bc:17:26:27:fc:97:a8:a3:52:08:
         9c:3b:3f:50:70:4b:e5:03:d7:38:d5:8a:05:75:77:ac:ea:35:
         9c:12:46:97:3f:e2:bc:3d:d7:2a:62:dd:68:7b:03:58:c7:1d:
         b8:25:f8:67:79:1b:10:7a:af:4a:d9:1c:bb:ea:60:cf:67:b2:
         a0:58:c4:77:cb:8b:24:d1:64:6d:49:a3:4e:85:8c:50:48:6b:
         c8:15:7f:dc
-----BEGIN CERTIFICATE-----
MIIDSjCCAjKgAwIBAgIEEjRWejANBgkqhkiG9w0BAQsFADAnMSUwIwYDVQQDDBxT
UksxX3NoYTI1Nl8yMDQ4XzY1NTM3X3YzX2NhMB4XDTE4MDYyOTA3MzQ0NFoXDTI4
MDYyNjA3MzQ0NFowKjEoMCYGA1UEAwwfSU1HMV8xX3NoYTI1Nl8yMDQ4XzY1NTM3
X3YzX3VzcjCCASIwDQYJKoZIhvcNAQEBBQADggEPADCCAQoCggEBAMNCHjI+ARBr
3a6SdmVB5LSSFfWnZVnoyc1I06VViZlgbHp9nxB0H+5slMePtOeF3het99XFZhDI
/l9y28h1vTxh4D1ItbLfZKLJmAb1DoWJ1c7UzqX1uyVt6VdrSxXA78qnI6NDBtvY
WgX6R+drCkdD90eNEuglgx5iHgTnJQwQLn6AtswoWJmnniVANCwGBl71MFAuKjf9
4ICr6A6Tod2OHy4si3UfOMgn5aFL+tpXTMtw7xZZ8fwQUPj1paOzGaESSq2VRRH9
iXtCgZcwC4YofPpa68RcTTpUIwNNURe8pFx5wegEsoVXRvtYJx8iGFpYITMVb97W
WvOgBWCAKu0CAwEAAaN7MHkwCQYDVR0TBAIwADAsBglghkgBhvhCAQ0EHxYdT3Bl
blNTTCBHZW5lcmF0ZWQgQ2VydGlmaWNhdGUwHQYDVR0OBBYEFBcJ8CrZzcfu+BR4
YS9gfea1RwKJMB8GA1UdIwQYMBaAFGFBu3++l/4Si2dWxdT6oUCMUiLWMA0GCSqG
SIb3DQEBCwUAA4IBAQBoE2dUjdEhp+UA8es6n0M9MiwLS0Rw8vJSFcPppKSyD7pU
6TD+Iq9O0tBLSLKVKpffyT8hh6eLEEB0NXTFU/rIg2al7oflZwy4p7KofqTkd2/S
VgZqAft4eD/SWSPD0aI8wx9F+sZTVzgUm2Q6cYFRXNv7DM9vvURrYnSRiritUZsO
h0SxtkuZHe6tIchJOhbTRyjEzTbjltH5spm76WSaQE+mTWRQLuGjWbwXJif8l6ij
UgicOz9QcEvlA9c41YoFdXes6jWcEkaXP+K8PdcqYt1oewNYxx24JfhneRsQeq9K
2Ry76mDPZ7KgWMR3y4sk0WRtSaNOhYxQSGvIFX/c
-----END CERTIFICATE-----
