Certificate:
    Data:
        Version: 3 (0x2)
        Serial Number: 305419901 (0x1234567d)
    Signature Algorithm: sha256WithRSAEncryption
        Issuer: CN=SRK2_sha256_2048_65537_v3_ca
        Validity
            Not Before: Jun 29 07:34:45 2018 GMT
            Not After : Jun 26 07:34:45 2028 GMT
        Subject: CN=IMG2_1_sha256_2048_65537_v3_usr
        Subject Public Key Info:
            Public Key Algorithm: rsaEncryption
                Public-Key: (2048 bit)
                Modulus:
                    00:c9:59:04:af:c7:38:2f:7c:9f:a5:45:58:52:77:
                    ea:d2:57:e1:5f:00:b9:91:ca:c4:c1:0d:7c:0a:e5:
                    a1:51:25:d5:a6:e2:37:8b:ad:d5:16:ab:5d:18:21:
                    89:66:4d:e7:e3:e0:04:fe:0e:07:cd:c0:6d:60:cf:
                    6f:64:68:42:d9:17:a5:6a:ae:20:28:42:4b:03:40:
                    53:19:0c:93:7a:f2:5a:c0:ad:5a:15:aa:9d:88:58:
                    69:91:5c:41:d6:9e:71:23:e1:fe:b0:1c:8a:41:38:
                    5c:15:25:1f:0e:a8:12:3a:b4:e9:1e:3c:85:7b:0c:
                    a3:f6:f8:39:bc:f5:e2:04:4a:ca:56:8d:f2:a4:c3:
                    db:e2:4e:e1:9d:70:9a:4e:95:4f:60:6c:43:4d:05:
                    94:10:0d:4f:ec:e7:d2:9b:8a:0c:fd:36:3b:54:b7:
                    79:fe:e8:3a:3a:46:30:82:db:58:64:58:3c:d3:a7:
                    c4:9f:e1:1b:6a:ee:ba:d0:5f:69:9b:b9:45:63:3c:
                    99:dc:e8:74:d1:29:bc:c8:14:26:16:0b:c9:26:e4:
                    51:72:98:64:66:df:c4:16:7c:dc:41:f6:47:f7:7a:
                    ea:3f:95:c2:d8:26:74:87:c1:bc:ce:cd:c6:eb:4f:
                    6e:36:01:18:4f:31:e2:9f:14:68:3f:1d:32:94:cf:
                    6a:b7
                Exponent: 65537 (0x10001)
        X509v3 extensions:
            X509v3 Basic Constraints: 
                CA:FALSE
            Netscape Comment: 
                OpenSSL Generated Certificate
            X509v3 Subject Key Identifier: 
                1F:1B:A1:4D:6B:F1:36:43:07:41:54:68:61:0B:43:64:10:EB:B8:D8
            X509v3 Authority Key Identifier: 
                keyid:1F:5E:04:AB:8E:FA:38:8A:B6:2B:8D:15:2E:F4:6F:D3:E2:43:EF:77

    Signature Algorithm: sha256WithRSAEncryption
         a4:7d:9e:70:63:f6:50:cc:d9:be:55:4d:88:5b:32:47:bb:0f:
         9a:8b:c2:59:2c:25:e2:83:87:15:b8:bf:4c:36:ed:38:00:cf:
         f7:02:6f:f3:ee:d7:5e:47:2a:bc:e0:79:3b:b4:1b:79:20:a1:
         f4:81:5d:7c:b2:cc:71:00:07:01:4d:c6:76:4d:76:08:6b:aa:
         37:56:9d:dc:61:8d:22:02:5f:0d:32:cf:3f:83:08:82:2c:82:
         13:54:32:a7:6a:ac:29:f4:da:0d:50:82:a6:7d:91:a9:ab:80:
         db:43:f9:f7:0e:4d:5f:ce:5f:76:75:ef:81:8e:66:79:b2:f4:
         43:51:c9:6d:a2:70:91:fe:71:e9:6f:7d:1f:9d:2f:54:57:db:
         2a:26:ba:ad:bf:b7:59:28:d4:ea:ff:40:2d:e0:32:c9:05:05:
         06:33:fe:61:fd:97:80:24:75:30:8f:52:19:f5:44:0c:53:99:
         1e:82:fa:e0:b0:0e:de:82:d7:82:a0:22:7b:02:b6:19:6b:1f:
         d2:23:88:b8:c2:f2:d2:d6:af:0f:11:63:d6:81:1b:1e:f2:a0:
         f5:9b:a7:6e:12:c4:ad:35:d2:4c:b9:7f:53:cf:e6:88:8f:e2:
         37:d0:a6:44:07:d2:b2:89:60:d6:06:d7:69:d0:8d:86:a8:25:
         da:19:db:c9
-----BEGIN CERTIFICATE-----
MIIDSjCCAjKgAwIBAgIEEjRWfTANBgkqhkiG9w0BAQsFADAnMSUwIwYDVQQDDBxT
UksyX3NoYTI1Nl8yMDQ4XzY1NTM3X3YzX2NhMB4XDTE4MDYyOTA3MzQ0NVoXDTI4
MDYyNjA3MzQ0NVowKjEoMCYGA1UEAwwfSU1HMl8xX3NoYTI1Nl8yMDQ4XzY1NTM3
X3YzX3VzcjCCASIwDQYJKoZIhvcNAQEBBQADggEPADCCAQoCggEBAMlZBK/HOC98
n6VFWFJ36tJX4V8AuZHKxMENfArloVEl1abiN4ut1RarXRghiWZN5+PgBP4OB83A
bWDPb2RoQtkXpWquIChCSwNAUxkMk3ryWsCtWhWqnYhYaZFcQdaecSPh/rAcikE4
XBUlHw6oEjq06R48hXsMo/b4Obz14gRKylaN8qTD2+JO4Z1wmk6VT2BsQ00FlBAN
T+zn0puKDP02O1S3ef7oOjpGMILbWGRYPNOnxJ/hG2ruutBfaZu5RWM8mdzodNEp
vMgUJhYLySbkUXKYZGbfxBZ83EH2R/d66j+VwtgmdIfBvM7NxutPbjYBGE8x4p8U
aD8dMpTParcCAwEAAaN7MHkwCQYDVR0TBAIwADAsBglghkgBhvhCAQ0EHxYdT3Bl
blNTTCBHZW5lcmF0ZWQgQ2VydGlmaWNhdGUwHQYDVR0OBBYEFB8boU1r8TZDB0FU
aGELQ2QQ67jYMB8GA1UdIwQYMBaAFB9eBKuO+jiKtiuNFS70b9PiQ+93MA0GCSqG
SIb3DQEBCwUAA4IBAQCkfZ5wY/ZQzNm+VU2IWzJHuw+ai8JZLCXig4cVuL9MNu04
AM/3Am/z7tdeRyq84Hk7tBt5IKH0gV18ssxxAAcBTcZ2TXYIa6o3Vp3cYY0iAl8N
Ms8/gwiCLIITVDKnaqwp9NoNUIKmfZGpq4DbQ/n3Dk1fzl92de+BjmZ5svRDUclt
onCR/nHpb30fnS9UV9sqJrqtv7dZKNTq/0At4DLJBQUGM/5h/ZeAJHUwj1IZ9UQM
U5kegvrgsA7egteCoCJ7ArYZax/SI4i4wvLS1q8PEWPWgRse8qD1m6duEsStNdJM
uX9Tz+aIj+I30KZEB9KyiWDWBtdp0I2GqCXaGdvJ
-----END CERTIFICATE-----
