Certificate:
    Data:
        Version: 3 (0x2)
        Serial Number: 305419907 (0x12345683)
    Signature Algorithm: sha256WithRSAEncryption
        Issuer: CN=SRK4_sha256_2048_65537_v3_ca
        Validity
            Not Before: Jun 29 07:34:46 2018 GMT
            Not After : Jun 26 07:34:46 2028 GMT
        Subject: CN=IMG4_1_sha256_2048_65537_v3_usr
        Subject Public Key Info:
            Public Key Algorithm: rsaEncryption
                Public-Key: (2048 bit)
                Modulus:
                    00:c6:38:5b:b6:6b:01:78:a7:ac:f2:b7:d9:9c:3e:
                    cb:2c:e1:10:0f:22:a1:51:68:90:e3:e5:4a:80:46:
                    92:26:21:7d:f9:b9:b5:06:9d:8d:a2:9b:6b:06:8f:
                    c5:2b:65:55:8a:a8:49:2e:97:c9:3c:df:1a:1e:e7:
                    cc:31:50:ac:d6:12:e6:11:8f:08:2d:4f:66:81:6b:
                    a5:3f:a6:62:32:e0:2f:76:2e:9d:3d:12:8c:f4:4a:
                    f1:12:52:be:c7:65:33:8f:eb:55:6b:e0:19:5d:75:
                    6f:3e:b0:1c:5a:76:7c:13:34:aa:65:b9:14:2b:b6:
                    8a:a9:9e:94:72:2b:cb:e9:f3:4d:8f:6a:d3:cb:ae:
                    a7:68:71:3c:c5:d0:31:4b:10:09:b9:fa:c3:44:e5:
                    b6:c8:79:89:d4:bd:a7:ff:c3:4a:a4:30:ff:57:6f:
                    fc:00:96:ce:25:56:cb:6f:fd:df:b1:ae:b5:1f:39:
                    97:a2:b2:6b:32:90:ad:e5:30:1b:68:24:a5:9e:8f:
                    12:22:40:b1:31:9e:b2:cc:61:f3:5d:67:82:6d:ae:
                    60:32:70:64:5f:31:45:08:e7:8d:1a:c1:e2:e8:0e:
                    25:56:92:04:f5:d8:8c:03:79:2e:86:bb:9c:55:3a:
                    c0:f0:ee:88:77:cb:c1:1a:8d:0a:54:b1:7e:07:eb:
                    a8:8b
                Exponent: 65537 (0x10001)
        X509v3 extensions:
            X509v3 Basic Constraints: 
                CA:FALSE
            Netscape Comment: 
                OpenSSL Generated Certificate
            X509v3 Subject Key Identifier: 
                14:AF:F2:8D:4B:1F:59:B7:CE:97:AC:37:9E:11:D7:4D:E8:EC:68:68
            X509v3 Authority Key Identifier: 
                keyid:7B:E1:8F:E7:61:BA:F5:74:CA:C9:02:66:91:85:19:00:1E:51:39:AE

    Signature Algorithm: sha256WithRSAEncryption
         30:7f:a5:19:20:60:3f:78:f1:2e:19:9b:cb:62:41:f4:76:0a:
         24:94:61:76:fe:66:d7:88:cf:98:73:06:5f:38:cd:b4:88:f3:
         f9:10:4d:88:cf:74:47:4a:54:2f:b3:d8:a5:15:0b:ec:9e:79:
         30:2b:f1:90:49:9c:1f:cc:70:22:1d:a5:d0:c0:08:9b:c0:22:
         27:8e:5d:af:d9:98:e9:db:60:82:ea:36:23:7f:c9:81:2a:c5:
         55:71:7f:1f:4a:97:42:b4:6b:43:e3:4a:c2:5f:02:da:be:c3:
         10:42:cb:44:1c:61:9f:f1:fd:84:d9:2c:89:bf:ee:c3:3d:25:
         61:90:28:6d:28:32:86:54:c2:f7:26:8b:c1:1c:42:07:ed:1a:
         0f:4b:56:4d:5e:b5:9f:b4:aa:f0:86:11:f2:ef:4c:7d:b0:21:
         ef:c3:34:f4:d2:85:0d:ab:61:7e:1d:56:7f:fb:52:49:09:37:
         6b:30:29:9b:1a:51:dd:b5:d8:6d:27:5c:57:50:df:75:7a:49:
         33:44:22:6d:df:b1:cf:48:0a:0e:06:05:95:f5:9b:d0:95:10:
         69:49:2d:df:d6:0d:2b:ba:d2:5a:66:b3:6f:6e:75:cb:10:c2:
         25:2e:c6:e9:29:af:d2:19:a7:61:3c:01:72:bb:92:12:3f:d6:
         54:f7:7b:58
-----BEGIN CERTIFICATE-----
MIIDSjCCAjKgAwIBAgIEEjRWgzANBgkqhkiG9w0BAQsFADAnMSUwIwYDVQQDDBxT
Uks0X3NoYTI1Nl8yMDQ4XzY1NTM3X3YzX2NhMB4XDTE4MDYyOTA3MzQ0NloXDTI4
MDYyNjA3MzQ0NlowKjEoMCYGA1UEAwwfSU1HNF8xX3NoYTI1Nl8yMDQ4XzY1NTM3
X3YzX3VzcjCCASIwDQYJKoZIhvcNAQEBBQADggEPADCCAQoCggEBAMY4W7ZrAXin
rPK32Zw+yyzhEA8ioVFokOPlSoBGkiYhffm5tQadjaKbawaPxStlVYqoSS6XyTzf
Gh7nzDFQrNYS5hGPCC1PZoFrpT+mYjLgL3YunT0SjPRK8RJSvsdlM4/rVWvgGV11
bz6wHFp2fBM0qmW5FCu2iqmelHIry+nzTY9q08uup2hxPMXQMUsQCbn6w0Tltsh5
idS9p//DSqQw/1dv/ACWziVWy2/937GutR85l6KyazKQreUwG2gkpZ6PEiJAsTGe
ssxh811ngm2uYDJwZF8xRQjnjRrB4ugOJVaSBPXYjAN5Loa7nFU6wPDuiHfLwRqN
ClSxfgfrqIsCAwEAAaN7MHkwCQYDVR0TBAIwADAsBglghkgBhvhCAQ0EHxYdT3Bl
blNTTCBHZW5lcmF0ZWQgQ2VydGlmaWNhdGUwHQYDVR0OBBYEFBSv8o1LH1m3zpes
N54R103o7GhoMB8GA1UdIwQYMBaAFHvhj+dhuvV0yskCZpGFGQAeUTmuMA0GCSqG
SIb3DQEBCwUAA4IBAQAwf6UZIGA/ePEuGZvLYkH0dgoklGF2/mbXiM+YcwZfOM20
iPP5EE2Iz3RHSlQvs9ilFQvsnnkwK/GQSZwfzHAiHaXQwAibwCInjl2v2Zjp22CC
6jYjf8mBKsVVcX8fSpdCtGtD40rCXwLavsMQQstEHGGf8f2E2SyJv+7DPSVhkCht
KDKGVML3JovBHEIH7RoPS1ZNXrWftKrwhhHy70x9sCHvwzT00oUNq2F+HVZ/+1JJ
CTdrMCmbGlHdtdhtJ1xXUN91ekkzRCJt37HPSAoOBgWV9ZvQlRBpSS3f1g0rutJa
ZrNvbnXLEMIlLsbpKa/SGadhPAFyu5ISP9ZU93tY
-----END CERTIFICATE-----
