Certificate:
    Data:
        Version: 3 (0x2)
        Serial Number: 305419896 (0x12345678)
    Signature Algorithm: sha256WithRSAEncryption
        Issuer: CN=CA1_sha256_2048_65537_v3_ca
        Validity
            Not Before: Jun 29 07:34:44 2018 GMT
            Not After : Jun 26 07:34:44 2028 GMT
        Subject: CN=SRK1_sha256_2048_65537_v3_ca
        Subject Public Key Info:
            Public Key Algorithm: rsaEncryption
                Public-Key: (2048 bit)
                Modulus:
                    00:a7:a5:4f:9e:e4:3f:92:29:42:e4:ea:dd:a4:14:
                    e7:7d:b0:98:a8:a8:30:6f:ff:dc:22:05:cf:c7:a3:
                    0e:e5:48:3e:9e:a5:8a:a9:76:78:88:de:3c:ed:70:
                    a7:75:7f:ad:08:77:72:57:88:eb:98:ab:ae:fa:b7:
                    b0:97:bd:13:04:3b:d6:ca:a3:61:df:f3:a2:b9:91:
                    d6:54:09:a4:16:16:ca:80:8c:f0:39:f8:a2:97:76:
                    a9:a6:b1:0f:7c:7f:9f:e9:2f:75:52:fb:a4:2b:e1:
                    ea:e1:cb:17:32:98:99:f5:0b:e3:17:4c:cb:e8:ed:
                    e2:7e:39:c6:b5:f2:fa:df:d1:54:ef:9c:5b:a9:05:
                    32:d4:23:e6:7a:df:4f:4a:e4:98:19:8b:a5:71:9a:
                    45:f8:bf:7b:a5:06:7c:d6:e7:5d:21:d5:4f:ff:6f:
                    9a:11:69:93:d2:05:3b:1f:96:71:5d:9e:08:df:b7:
                    5a:bb:78:c8:9f:63:c7:45:0e:70:96:32:49:71:9c:
                    a2:65:e1:42:2d:0e:63:3e:9c:16:a9:72:47:f7:91:
                    eb:75:31:84:0e:e5:ee:76:3a:f9:1b:09:7a:97:19:
                    9e:52:10:29:1c:e2:92:c8:6c:d0:ee:c5:8c:ea:2f:
                    20:39:16:e6:42:72:91:fa:13:55:2c:25:8d:ea:de:
                    bd:d9
                Exponent: 65537 (0x10001)
        X509v3 extensions:
            X509v3 Subject Key Identifier: 
                61:41:BB:7F:BE:97:FE:12:8B:67:56:C5:D4:FA:A1:40:8C:52:22:D6
            X509v3 Authority Key Identifier: 
                keyid:81:7C:06:41:51:8A:B2:23:0C:CB:F2:91:2F:E6:F5:F6:3B:92:DC:BA
                DirName:/CN=CA1_sha256_2048_65537_v3_ca
                serial:E1:1C:A8:14:9D:5F:D4:47

            X509v3 Basic Constraints: critical
                CA:TRUE
            X509v3 Key Usage: 
                Certificate Sign
    Signature Algorithm: sha256WithRSAEncryption
         92:70:9b:1c:a1:7f:58:a3:40:14:63:46:2e:14:b2:82:f1:43:
         85:84:a7:d7:db:4e:af:dd:7e:1a:1a:2a:02:f7:5d:13:5b:4d:
         7a:fe:06:c4:61:f0:45:c1:fd:de:58:ac:b5:18:8d:2a:9e:7b:
         4c:ff:00:61:a6:d1:56:cd:b7:d9:49:1f:6b:3a:14:3c:e4:c3:
         13:f5:2c:ab:78:94:19:99:de:a3:b6:f1:53:43:c3:78:11:eb:
         9b:8b:0d:7c:31:36:76:eb:52:a1:7d:4f:98:60:d5:50:44:0b:
         60:a1:02:19:c5:a9:aa:3b:29:a0:77:4d:51:ff:7e:98:5e:9b:
         bc:e0:a6:44:ca:86:b8:b5:fd:7b:d0:53:4b:76:e0:f1:02:43:
         01:9a:55:6f:a4:53:7f:70:d6:6a:4f:e7:83:21:45:91:24:71:
         46:4a:f0:fa:4a:e8:05:f2:ad:37:77:81:66:2d:a6:a3:28:76:
         ca:67:1b:76:45:9b:4f:b0:4b:c2:23:32:5e:fa:43:57:62:66:
         68:fb:9d:6d:4c:83:06:ef:92:84:e3:8f:ff:cf:60:a8:e8:82:
         03:37:8b:1e:d6:5d:a6:e0:8f:1d:ea:57:25:d5:f7:1b:5b:bd:
         85:1f:16:12:70:3c:5a:f8:69:07:09:9a:0a:b2:7d:b9:3d:f7:
         94:66:f7:bd
-----BEGIN CERTIFICATE-----
MIIDZDCCAkygAwIBAgIEEjRWeDANBgkqhkiG9w0BAQsFADAmMSQwIgYDVQQDFBtD
QTFfc2hhMjU2XzIwNDhfNjU1MzdfdjNfY2EwHhcNMTgwNjI5MDczNDQ0WhcNMjgw
NjI2MDczNDQ0WjAnMSUwIwYDVQQDDBxTUksxX3NoYTI1Nl8yMDQ4XzY1NTM3X3Yz
X2NhMIIBIjANBgkqhkiG9w0BAQEFAAOCAQ8AMIIBCgKCAQEAp6VPnuQ/kilC5Ord
pBTnfbCYqKgwb//cIgXPx6MO5Ug+nqWKqXZ4iN487XCndX+tCHdyV4jrmKuu+rew
l70TBDvWyqNh3/OiuZHWVAmkFhbKgIzwOfiil3apprEPfH+f6S91UvukK+Hq4csX
MpiZ9QvjF0zL6O3ifjnGtfL639FU75xbqQUy1CPmet9PSuSYGYulcZpF+L97pQZ8
1uddIdVP/2+aEWmT0gU7H5ZxXZ4I37dau3jIn2PHRQ5wljJJcZyiZeFCLQ5jPpwW
qXJH95HrdTGEDuXudjr5Gwl6lxmeUhApHOKSyGzQ7sWM6i8gORbmQnKR+hNVLCWN
6t692QIDAQABo4GYMIGVMB0GA1UdDgQWBBRhQbt/vpf+EotnVsXU+qFAjFIi1jBW
BgNVHSMETzBNgBSBfAZBUYqyIwzL8pEv5vX2O5LcuqEqpCgwJjEkMCIGA1UEAxQb
Q0ExX3NoYTI1Nl8yMDQ4XzY1NTM3X3YzX2NhggkA4RyoFJ1f1EcwDwYDVR0TAQH/
BAUwAwEB/zALBgNVHQ8EBAMCAgQwDQYJKoZIhvcNAQELBQADggEBAJJwmxyhf1ij
QBRjRi4UsoLxQ4WEp9fbTq/dfhoaKgL3XRNbTXr+BsRh8EXB/d5YrLUYjSqee0z/
AGGm0VbNt9lJH2s6FDzkwxP1LKt4lBmZ3qO28VNDw3gR65uLDXwxNnbrUqF9T5hg
1VBEC2ChAhnFqao7KaB3TVH/fphem7zgpkTKhri1/XvQU0t24PECQwGaVW+kU39w
1mpP54MhRZEkcUZK8PpK6AXyrTd3gWYtpqModspnG3ZFm0+wS8IjMl76Q1diZmj7
nW1MgwbvkoTjj//PYKjoggM3ix7WXabgjx3qVyXV9xtbvYUfFhJwPFr4aQcJmgqy
fbk995Rm970=
-----END CERTIFICATE-----
