Certificate:
    Data:
        Version: 3 (0x2)
        Serial Number: 305419904 (0x12345680)
    Signature Algorithm: sha256WithRSAEncryption
        Issuer: CN=SRK3_sha256_2048_65537_v3_ca
        Validity
            Not Before: Jun 29 07:34:45 2018 GMT
            Not After : Jun 26 07:34:45 2028 GMT
        Subject: CN=IMG3_1_sha256_2048_65537_v3_usr
        Subject Public Key Info:
            Public Key Algorithm: rsaEncryption
                Public-Key: (2048 bit)
                Modulus:
                    00:c1:42:b5:7d:de:6a:71:ea:3d:8c:ff:3d:91:58:
                    03:67:a8:85:90:ee:a3:dc:d8:77:5e:f4:0a:e8:e9:
                    59:9a:18:ca:d2:b6:e5:e7:6c:c4:69:9e:d1:fb:a8:
                    33:e0:b0:02:43:52:0f:2a:d3:76:c9:4e:23:2b:ad:
                    eb:8d:f8:9b:d8:4f:b2:c1:95:8b:b9:0c:d4:ba:61:
                    09:5a:58:b2:ce:8b:00:b0:8e:da:ff:1b:9d:0f:39:
                    e3:0a:7b:9b:05:35:53:df:27:c7:3a:d1:27:8a:30:
                    e3:94:11:44:f1:dc:99:ce:cd:ff:b9:d0:bd:4a:a5:
                    24:12:22:19:d6:82:fe:03:ec:45:b9:47:de:22:e6:
                    6c:6b:36:2a:53:ef:5f:84:b0:70:9c:21:ca:c1:fc:
                    6b:d0:76:fa:6a:99:86:fb:7d:56:3e:0d:ee:3c:25:
                    67:e6:a8:ab:0d:18:07:0a:56:b1:40:3f:62:ac:2a:
                    5e:3c:20:8e:5f:4b:b0:db:a8:31:57:39:cb:47:5d:
                    33:96:60:2e:36:0b:06:c1:3e:e7:e6:20:a8:fb:ba:
                    3b:b0:ab:7f:3d:0c:20:f7:a4:fa:ad:49:b6:c8:df:
                    13:ed:6a:70:d2:67:a2:19:a1:dd:ca:ed:63:54:e1:
                    0a:db:a4:be:da:95:6f:4f:ab:af:b6:84:6c:fd:ef:
                    23:df
                Exponent: 65537 (0x10001)
        X509v3 extensions:
            X509v3 Basic Constraints: 
                CA:FALSE
            Netscape Comment: 
                OpenSSL Generated Certificate
            X509v3 Subject Key Identifier: 
                78:5A:B7:0D:69:CE:A4:D2:21:CD:AE:69:A0:B3:32:23:40:99:2E:9A
            X509v3 Authority Key Identifier: 
                keyid:98:C3:12:4F:F3:33:4D:A7:0C:44:69:7B:99:B7:44:48:31:C4:8F:9F

    Signature Algorithm: sha256WithRSAEncryption
         a5:0f:4c:4a:9f:2f:cc:12:d9:cf:fc:0a:57:63:86:d8:72:7d:
         f5:2b:86:65:e5:60:a6:b9:d4:ed:2b:84:88:96:36:29:c3:dc:
         c7:79:49:05:4a:6c:c5:30:26:6f:07:41:62:44:be:46:e2:1e:
         c1:3f:49:3f:da:20:a7:cb:f1:70:7b:a0:cf:f3:a9:62:a3:dd:
         10:8e:23:3c:d8:ea:e8:bc:76:44:fe:a5:1a:81:79:04:69:e4:
         09:ee:d4:f3:62:0a:fc:ff:a8:c4:9b:28:44:30:6e:93:0b:37:
         7b:dd:09:0a:1d:aa:1a:4f:0c:21:06:d2:75:a6:02:e1:32:2e:
         a8:bb:54:d6:29:8e:89:74:c1:ba:90:f1:ce:c5:11:78:5c:f9:
         33:5c:a9:3c:50:76:37:a5:87:c2:b7:e8:77:d5:c7:56:00:58:
         e8:5f:58:62:bd:3d:86:70:a6:d8:02:11:59:1e:ee:54:1b:e3:
         6d:71:85:60:96:6c:63:a1:11:6e:76:4a:05:04:b9:c2:5d:4e:
         0d:fe:03:1b:ae:bb:66:12:5c:4a:29:d5:e4:19:ac:c2:78:48:
         88:64:e2:9d:50:77:87:3c:ad:11:87:ed:52:f6:1e:bf:6a:90:
         a3:46:63:37:52:96:83:f3:7b:d2:32:89:89:3d:1f:01:5d:0d:
         10:30:11:15
-----BEGIN CERTIFICATE-----
MIIDSjCCAjKgAwIBAgIEEjRWgDANBgkqhkiG9w0BAQsFADAnMSUwIwYDVQQDDBxT
UkszX3NoYTI1Nl8yMDQ4XzY1NTM3X3YzX2NhMB4XDTE4MDYyOTA3MzQ0NVoXDTI4
MDYyNjA3MzQ0NVowKjEoMCYGA1UEAwwfSU1HM18xX3NoYTI1Nl8yMDQ4XzY1NTM3
X3YzX3VzcjCCASIwDQYJKoZIhvcNAQEBBQADggEPADCCAQoCggEBAMFCtX3eanHq
PYz/PZFYA2eohZDuo9zYd170CujpWZoYytK25edsxGme0fuoM+CwAkNSDyrTdslO
Iyut6434m9hPssGVi7kM1LphCVpYss6LALCO2v8bnQ854wp7mwU1U98nxzrRJ4ow
45QRRPHcmc7N/7nQvUqlJBIiGdaC/gPsRblH3iLmbGs2KlPvX4SwcJwhysH8a9B2
+mqZhvt9Vj4N7jwlZ+aoqw0YBwpWsUA/YqwqXjwgjl9LsNuoMVc5y0ddM5ZgLjYL
BsE+5+YgqPu6O7Crfz0MIPek+q1JtsjfE+1qcNJnohmh3crtY1ThCtukvtqVb0+r
r7aEbP3vI98CAwEAAaN7MHkwCQYDVR0TBAIwADAsBglghkgBhvhCAQ0EHxYdT3Bl
blNTTCBHZW5lcmF0ZWQgQ2VydGlmaWNhdGUwHQYDVR0OBBYEFHhatw1pzqTSIc2u
aaCzMiNAmS6aMB8GA1UdIwQYMBaAFJjDEk/zM02nDERpe5m3REgxxI+fMA0GCSqG
SIb3DQEBCwUAA4IBAQClD0xKny/MEtnP/ApXY4bYcn31K4Zl5WCmudTtK4SIljYp
w9zHeUkFSmzFMCZvB0FiRL5G4h7BP0k/2iCny/Fwe6DP86lio90QjiM82OrovHZE
/qUagXkEaeQJ7tTzYgr8/6jEmyhEMG6TCzd73QkKHaoaTwwhBtJ1pgLhMi6ou1TW
KY6JdMG6kPHOxRF4XPkzXKk8UHY3pYfCt+h31cdWAFjoX1hivT2GcKbYAhFZHu5U
G+NtcYVglmxjoRFudkoFBLnCXU4N/gMbrrtmElxKKdXkGazCeEiIZOKdUHeHPK0R
h+1S9h6/apCjRmM3UpaD83vSMomJPR8BXQ0QMBEV
-----END CERTIFICATE-----
