Certificate:
    Data:
        Version: 3 (0x2)
        Serial Number: 305419900 (0x1234567c)
    Signature Algorithm: sha256WithRSAEncryption
        Issuer: CN=SRK2_sha256_2048_65537_v3_ca
        Validity
            Not Before: Jun 29 07:34:45 2018 GMT
            Not After : Jun 26 07:34:45 2028 GMT
        Subject: CN=CSF2_1_sha256_2048_65537_v3_usr
        Subject Public Key Info:
            Public Key Algorithm: rsaEncryption
                Public-Key: (2048 bit)
                Modulus:
                    00:a9:1b:f9:85:99:dc:66:0e:fc:0b:2e:e0:e4:30:
                    ed:bf:b3:7b:24:44:61:f1:59:63:52:af:2c:6f:70:
                    22:b6:53:c7:d6:f0:cd:f8:91:72:c9:5b:71:57:c0:
                    48:d4:46:42:05:0c:28:04:22:8a:62:9a:57:63:6c:
                    5b:6f:37:fd:0f:05:90:c4:34:f1:8d:c3:96:2e:b7:
                    ea:fe:f5:0e:19:4e:df:66:54:06:c0:3b:95:e9:ef:
                    aa:97:76:e2:85:cf:45:27:bc:b6:f1:1c:92:d8:c9:
                    f3:dc:87:d1:30:88:5b:b8:54:80:e2:a3:61:e0:f4:
                    1d:a1:76:aa:61:f6:5e:4c:1a:d4:99:96:50:d8:3b:
                    06:c6:da:04:70:92:a8:c2:b7:26:57:bf:6f:8c:46:
                    51:dc:6e:78:d3:44:37:54:e1:fb:70:aa:05:f3:d8:
                    2f:dd:c6:7f:c3:eb:12:74:d6:99:76:6b:a1:1c:e4:
                    b8:d0:8a:37:ec:04:03:59:84:7d:de:d0:27:05:20:
                    0d:87:39:b8:3e:a6:0b:a8:f3:fc:47:07:49:52:18:
                    24:23:f0:86:fd:e1:0b:37:c7:73:ad:62:c7:5c:f6:
                    2e:1e:8b:c1:21:53:9e:a5:e1:d1:86:b3:39:e5:39:
                    89:e5:83:45:b3:f9:e0:9b:33:a5:f9:2c:24:71:18:
                    27:7b
                Exponent: 65537 (0x10001)
        X509v3 extensions:
            X509v3 Basic Constraints: 
                CA:FALSE
            Netscape Comment: 
                OpenSSL Generated Certificate
            X509v3 Subject Key Identifier: 
                8A:FA:7D:97:4A:11:02:43:50:74:1A:6D:D3:70:16:81:A4:3B:D9:26
            X509v3 Authority Key Identifier: 
                keyid:1F:5E:04:AB:8E:FA:38:8A:B6:2B:8D:15:2E:F4:6F:D3:E2:43:EF:77

    Signature Algorithm: sha256WithRSAEncryption
         9f:88:18:82:0e:61:08:84:e0:17:70:5c:e9:bd:c2:a3:56:33:
         a7:c6:3c:35:59:15:f8:cd:01:cf:db:de:ca:b2:1a:9f:47:ab:
         f6:af:21:a0:91:bc:c8:dd:47:f0:92:2e:82:5e:16:ea:67:66:
         9f:ba:8a:d6:87:52:01:8d:c3:d1:32:80:59:81:65:8c:ef:34:
         3e:fe:5e:fb:f4:09:2f:b9:b3:34:b9:cc:a9:18:a8:a4:f6:38:
         27:0e:e6:25:04:89:fd:94:75:26:1a:d8:d9:e2:d1:72:87:28:
         94:35:58:6f:c2:26:05:92:71:ad:92:0f:cb:45:6c:bb:14:7a:
         a0:21:60:4c:c2:d4:1c:12:53:c3:84:f1:93:f9:06:99:5c:b1:
         a3:bd:7f:20:74:03:0f:68:ce:c0:89:77:f6:df:07:bc:0f:4b:
         f2:d2:d2:b4:16:9e:d3:84:2d:0d:84:45:b2:a5:69:d4:0d:16:
         88:3a:dd:5b:1a:99:76:d6:2f:11:54:df:7c:d9:aa:cf:28:a0:
         29:19:50:10:be:55:e0:81:07:72:fc:45:76:b9:b5:8f:70:f3:
         5c:00:6d:31:dd:d2:3f:43:d6:47:ae:56:1c:29:37:b8:b2:00:
         20:26:15:46:47:c5:2b:b0:a1:61:58:20:a0:c0:e9:9f:a0:c1:
         17:51:44:9b
-----BEGIN CERTIFICATE-----
MIIDSjCCAjKgAwIBAgIEEjRWfDANBgkqhkiG9w0BAQsFADAnMSUwIwYDVQQDDBxT
UksyX3NoYTI1Nl8yMDQ4XzY1NTM3X3YzX2NhMB4XDTE4MDYyOTA3MzQ0NVoXDTI4
MDYyNjA3MzQ0NVowKjEoMCYGA1UEAwwfQ1NGMl8xX3NoYTI1Nl8yMDQ4XzY1NTM3
X3YzX3VzcjCCASIwDQYJKoZIhvcNAQEBBQADggEPADCCAQoCggEBAKkb+YWZ3GYO
/Asu4OQw7b+zeyREYfFZY1KvLG9wIrZTx9bwzfiRcslbcVfASNRGQgUMKAQiimKa
V2NsW283/Q8FkMQ08Y3Dli636v71DhlO32ZUBsA7lenvqpd24oXPRSe8tvEcktjJ
89yH0TCIW7hUgOKjYeD0HaF2qmH2Xkwa1JmWUNg7BsbaBHCSqMK3Jle/b4xGUdxu
eNNEN1Th+3CqBfPYL93Gf8PrEnTWmXZroRzkuNCKN+wEA1mEfd7QJwUgDYc5uD6m
C6jz/EcHSVIYJCPwhv3hCzfHc61ix1z2Lh6LwSFTnqXh0YazOeU5ieWDRbP54Jsz
pfksJHEYJ3sCAwEAAaN7MHkwCQYDVR0TBAIwADAsBglghkgBhvhCAQ0EHxYdT3Bl
blNTTCBHZW5lcmF0ZWQgQ2VydGlmaWNhdGUwHQYDVR0OBBYEFIr6fZdKEQJDUHQa
bdNwFoGkO9kmMB8GA1UdIwQYMBaAFB9eBKuO+jiKtiuNFS70b9PiQ+93MA0GCSqG
SIb3DQEBCwUAA4IBAQCfiBiCDmEIhOAXcFzpvcKjVjOnxjw1WRX4zQHP297Kshqf
R6v2ryGgkbzI3Ufwki6CXhbqZ2afuorWh1IBjcPRMoBZgWWM7zQ+/l779AkvubM0
ucypGKik9jgnDuYlBIn9lHUmGtjZ4tFyhyiUNVhvwiYFknGtkg/LRWy7FHqgIWBM
wtQcElPDhPGT+QaZXLGjvX8gdAMPaM7AiXf23we8D0vy0tK0Fp7ThC0NhEWypWnU
DRaIOt1bGpl21i8RVN982arPKKApGVAQvlXggQdy/EV2ubWPcPNcAG0x3dI/Q9ZH
rlYcKTe4sgAgJhVGR8UrsKFhWCCgwOmfoMEXUUSb
-----END CERTIFICATE-----
