Certificate:
    Data:
        Version: 3 (0x2)
        Serial Number: 305419902 (0x1234567e)
    Signature Algorithm: sha256WithRSAEncryption
        Issuer: CN=CA1_sha256_2048_65537_v3_ca
        Validity
            Not Before: Jun 29 07:34:45 2018 GMT
            Not After : Jun 26 07:34:45 2028 GMT
        Subject: CN=SRK3_sha256_2048_65537_v3_ca
        Subject Public Key Info:
            Public Key Algorithm: rsaEncryption
                Public-Key: (2048 bit)
                Modulus:
                    00:b0:1a:f6:c4:d6:ee:ef:81:f1:25:e9:f7:e0:5d:
                    cd:67:ab:71:16:41:fb:3c:9b:f6:6a:9b:71:66:f5:
                    7f:46:fa:06:79:88:76:65:20:ab:1a:9f:16:36:73:
                    3a:5a:4d:b8:d0:0a:3a:54:e8:8a:11:33:e2:3b:59:
                    b0:7b:4a:83:75:42:79:e3:a5:f3:55:10:4e:4d:61:
                    f5:f3:40:a7:b6:5c:62:cf:62:f6:64:eb:12:46:44:
                    bd:64:eb:cf:a8:98:72:e0:d0:d1:54:50:95:11:9f:
                    5a:0e:d5:58:dd:d7:50:43:07:7b:22:47:fa:88:f2:
                    de:8a:55:59:f3:3d:b3:f6:61:69:1f:80:d4:31:92:
                    dc:9c:cd:85:57:55:01:8e:6e:c7:1a:50:40:e0:70:
                    de:69:6e:3a:ce:d0:b8:d4:9c:a5:68:b6:00:a0:da:
                    6d:6b:80:a6:a7:01:b0:7d:30:04:f3:86:00:63:77:
                    ad:86:3b:7c:29:37:3b:ee:24:83:35:fa:10:83:a0:
                    d7:44:65:2f:0f:42:40:8a:b9:43:8c:9a:27:75:ef:
                    b3:7a:3c:03:fa:b4:2c:8a:b3:50:02:62:f0:17:fd:
                    d4:5c:71:70:65:f5:a1:ad:f8:f8:a3:1e:bd:8b:ee:
                    82:cd:74:1e:c8:88:22:ef:23:78:ab:3a:c6:c1:b0:
                    bf:97
                Exponent: 65537 (0x10001)
        X509v3 extensions:
            X509v3 Subject Key Identifier: 
                98:C3:12:4F:F3:33:4D:A7:0C:44:69:7B:99:B7:44:48:31:C4:8F:9F
            X509v3 Authority Key Identifier: 
                keyid:81:7C:06:41:51:8A:B2:23:0C:CB:F2:91:2F:E6:F5:F6:3B:92:DC:BA
                DirName:/CN=CA1_sha256_2048_65537_v3_ca
                serial:E1:1C:A8:14:9D:5F:D4:47

            X509v3 Basic Constraints: critical
                CA:TRUE
            X509v3 Key Usage: 
                Certificate Sign
    Signature Algorithm: sha256WithRSAEncryption
         90:f6:97:eb:08:77:d6:49:97:06:86:83:d1:90:07:e2:b0:f6:
         4e:11:ed:9e:c2:a3:9e:71:4f:03:d6:7e:33:3e:57:f4:ef:15:
         9d:60:16:51:77:d6:7b:89:32:5d:cc:bf:5a:34:82:2a:0c:df:
         b6:96:e8:1d:2f:83:df:5c:30:25:61:cd:3a:90:2e:3e:bd:99:
         01:31:d2:b8:d3:d5:e9:70:10:91:61:c7:35:47:d7:b7:55:56:
         e9:45:bb:3d:b4:54:0d:6a:6f:a2:b0:16:2a:62:14:98:30:2c:
         3a:92:6c:70:11:da:34:c7:98:fe:65:bf:de:8f:a6:fb:1c:41:
         39:3a:8a:e0:0b:54:f6:75:a4:0e:76:38:9a:0d:d0:db:16:97:
         2f:a4:d8:d1:48:48:c9:f8:6d:2a:6b:f1:d9:be:85:84:a7:6e:
         7e:2b:df:52:08:c2:00:fc:d7:f2:b5:82:a9:2c:33:2f:41:8a:
         dc:a6:1c:7e:19:15:3b:50:ab:fe:4f:33:b0:b0:83:6d:3c:6c:
         1e:b5:bf:fc:6d:a4:47:25:7e:76:9d:3f:28:e1:20:b7:da:9d:
         c5:15:bf:7e:44:9f:72:bb:a0:85:60:66:3e:b1:fd:d1:2f:5e:
         97:8c:ae:81:0b:58:41:6e:6f:2c:10:07:35:45:c6:9c:58:ce:
         8a:36:e1:f9
-----BEGIN CERTIFICATE-----
MIIDZDCCAkygAwIBAgIEEjRWfjANBgkqhkiG9w0BAQsFADAmMSQwIgYDVQQDFBtD
QTFfc2hhMjU2XzIwNDhfNjU1MzdfdjNfY2EwHhcNMTgwNjI5MDczNDQ1WhcNMjgw
NjI2MDczNDQ1WjAnMSUwIwYDVQQDDBxTUkszX3NoYTI1Nl8yMDQ4XzY1NTM3X3Yz
X2NhMIIBIjANBgkqhkiG9w0BAQEFAAOCAQ8AMIIBCgKCAQEAsBr2xNbu74HxJen3
4F3NZ6txFkH7PJv2aptxZvV/RvoGeYh2ZSCrGp8WNnM6Wk240Ao6VOiKETPiO1mw
e0qDdUJ546XzVRBOTWH180Cntlxiz2L2ZOsSRkS9ZOvPqJhy4NDRVFCVEZ9aDtVY
3ddQQwd7Ikf6iPLeilVZ8z2z9mFpH4DUMZLcnM2FV1UBjm7HGlBA4HDeaW46ztC4
1JylaLYAoNpta4CmpwGwfTAE84YAY3ethjt8KTc77iSDNfoQg6DXRGUvD0JAirlD
jJonde+zejwD+rQsirNQAmLwF/3UXHFwZfWhrfj4ox69i+6CzXQeyIgi7yN4qzrG
wbC/lwIDAQABo4GYMIGVMB0GA1UdDgQWBBSYwxJP8zNNpwxEaXuZt0RIMcSPnzBW
BgNVHSMETzBNgBSBfAZBUYqyIwzL8pEv5vX2O5LcuqEqpCgwJjEkMCIGA1UEAxQb
Q0ExX3NoYTI1Nl8yMDQ4XzY1NTM3X3YzX2NhggkA4RyoFJ1f1EcwDwYDVR0TAQH/
BAUwAwEB/zALBgNVHQ8EBAMCAgQwDQYJKoZIhvcNAQELBQADggEBAJD2l+sId9ZJ
lwaGg9GQB+Kw9k4R7Z7Co55xTwPWfjM+V/TvFZ1gFlF31nuJMl3Mv1o0gioM37aW
6B0vg99cMCVhzTqQLj69mQEx0rjT1elwEJFhxzVH17dVVulFuz20VA1qb6KwFipi
FJgwLDqSbHAR2jTHmP5lv96PpvscQTk6iuALVPZ1pA52OJoN0NsWly+k2NFISMn4
bSpr8dm+hYSnbn4r31IIwgD81/K1gqksMy9BitymHH4ZFTtQq/5PM7Cwg208bB61
v/xtpEclfnadPyjhILfancUVv35En3K7oIVgZj6x/dEvXpeMroELWEFubywQBzVF
xpxYzoo24fk=
-----END CERTIFICATE-----
