Certificate:
    Data:
        Version: 3 (0x2)
        Serial Number: 305419899 (0x1234567b)
    Signature Algorithm: sha256WithRSAEncryption
        Issuer: CN=CA1_sha256_2048_65537_v3_ca
        Validity
            Not Before: Jun 29 07:34:44 2018 GMT
            Not After : Jun 26 07:34:44 2028 GMT
        Subject: CN=SRK2_sha256_2048_65537_v3_ca
        Subject Public Key Info:
            Public Key Algorithm: rsaEncryption
                Public-Key: (2048 bit)
                Modulus:
                    00:ab:02:92:ac:62:59:ad:ae:de:3a:d5:09:bb:04:
                    67:66:1d:ae:e2:7c:85:ac:11:fb:1e:9d:55:e4:ee:
                    3a:92:49:f1:39:10:a2:87:38:27:78:64:8d:aa:ee:
                    02:39:3f:8f:a9:b5:28:6b:30:8e:10:f0:6f:94:33:
                    0f:9e:ba:15:af:43:37:4d:d9:8e:57:df:ad:24:42:
                    90:93:87:c2:70:21:8f:b3:35:a8:4a:65:36:4b:6d:
                    bd:ac:1c:f0:2e:7b:80:60:43:8d:8a:04:b1:cd:52:
                    72:47:64:c7:f4:15:61:be:45:0b:6a:60:f5:5d:42:
                    24:b9:db:d1:fe:80:91:93:be:a2:47:c0:17:0d:fa:
                    f8:36:80:9b:a1:cd:99:9c:88:bd:ad:a9:2d:ad:75:
                    ef:b4:b8:a4:ba:5a:10:03:18:4b:aa:3d:c1:08:99:
                    f0:87:df:c6:9b:5c:87:cf:9f:45:c0:a2:8f:42:8f:
                    15:ce:df:96:48:4e:8e:e5:10:62:52:fa:8c:88:b6:
                    98:dc:8d:9b:3e:c5:41:47:b8:c9:5d:bb:d3:40:db:
                    90:17:e9:38:94:84:16:f7:d9:67:a9:fd:db:5d:89:
                    4c:b4:20:f6:b5:63:fd:61:ac:71:89:dd:96:f7:42:
                    35:15:a6:56:a9:52:3d:de:4a:cb:1c:d5:d3:2c:42:
                    29:77
                Exponent: 65537 (0x10001)
        X509v3 extensions:
            X509v3 Subject Key Identifier: 
                1F:5E:04:AB:8E:FA:38:8A:B6:2B:8D:15:2E:F4:6F:D3:E2:43:EF:77
            X509v3 Authority Key Identifier: 
                keyid:81:7C:06:41:51:8A:B2:23:0C:CB:F2:91:2F:E6:F5:F6:3B:92:DC:BA
                DirName:/CN=CA1_sha256_2048_65537_v3_ca
                serial:E1:1C:A8:14:9D:5F:D4:47

            X509v3 Basic Constraints: critical
                CA:TRUE
            X509v3 Key Usage: 
                Certificate Sign
    Signature Algorithm: sha256WithRSAEncryption
         60:9a:4d:0d:41:29:b5:b9:19:fb:70:e9:be:95:e3:e5:28:92:
         dd:e9:09:72:48:a8:59:f4:03:52:79:d0:f7:2f:4a:e5:90:40:
         b6:52:b3:3c:93:1e:7a:b3:16:f4:4f:53:20:c2:5e:4a:6d:6d:
         66:d9:77:c6:09:0d:e8:6d:dc:fd:81:b1:80:a1:56:86:3f:04:
         4d:c6:95:8a:92:2f:93:7c:ec:59:dc:6d:ac:1a:57:9b:1f:7e:
         4a:be:f9:f5:14:f4:9f:e9:a7:a5:5c:74:d3:d2:39:f9:9e:f3:
         02:7c:f2:05:af:47:d0:eb:b7:25:50:18:2f:23:51:58:a7:c9:
         39:15:6b:36:94:c6:7d:85:04:66:3b:82:75:e3:23:09:5d:21:
         ce:7b:52:ca:30:73:f8:fe:5b:24:14:cf:46:d0:7e:a3:c8:78:
         43:67:46:e7:40:9f:65:a0:77:58:43:5c:5d:51:69:1f:25:a8:
         b2:2f:be:22:e7:65:c3:88:dd:0d:22:5a:39:16:01:dc:e6:b0:
         33:ae:75:88:82:90:d5:d1:93:31:a4:c8:90:72:f3:4e:c8:6e:
         5f:3b:de:e5:0b:3d:88:46:95:7d:ae:e1:73:80:0a:7c:b9:be:
         92:43:71:8b:8b:5c:4d:b5:5c:0d:6a:25:9f:e8:e3:fc:0c:e8:
         1e:b1:51:95
-----BEGIN CERTIFICATE-----
MIIDZDCCAkygAwIBAgIEEjRWezANBgkqhkiG9w0BAQsFADAmMSQwIgYDVQQDFBtD
QTFfc2hhMjU2XzIwNDhfNjU1MzdfdjNfY2EwHhcNMTgwNjI5MDczNDQ0WhcNMjgw
NjI2MDczNDQ0WjAnMSUwIwYDVQQDDBxTUksyX3NoYTI1Nl8yMDQ4XzY1NTM3X3Yz
X2NhMIIBIjANBgkqhkiG9w0BAQEFAAOCAQ8AMIIBCgKCAQEAqwKSrGJZra7eOtUJ
uwRnZh2u4nyFrBH7Hp1V5O46kknxORCihzgneGSNqu4COT+PqbUoazCOEPBvlDMP
nroVr0M3TdmOV9+tJEKQk4fCcCGPszWoSmU2S229rBzwLnuAYEONigSxzVJyR2TH
9BVhvkULamD1XUIkudvR/oCRk76iR8AXDfr4NoCboc2ZnIi9raktrXXvtLikuloQ
AxhLqj3BCJnwh9/Gm1yHz59FwKKPQo8Vzt+WSE6O5RBiUvqMiLaY3I2bPsVBR7jJ
XbvTQNuQF+k4lIQW99lnqf3bXYlMtCD2tWP9Yaxxid2W90I1FaZWqVI93krLHNXT
LEIpdwIDAQABo4GYMIGVMB0GA1UdDgQWBBQfXgSrjvo4irYrjRUu9G/T4kPvdzBW
BgNVHSMETzBNgBSBfAZBUYqyIwzL8pEv5vX2O5LcuqEqpCgwJjEkMCIGA1UEAxQb
Q0ExX3NoYTI1Nl8yMDQ4XzY1NTM3X3YzX2NhggkA4RyoFJ1f1EcwDwYDVR0TAQH/
BAUwAwEB/zALBgNVHQ8EBAMCAgQwDQYJKoZIhvcNAQELBQADggEBAGCaTQ1BKbW5
Gftw6b6V4+Uokt3pCXJIqFn0A1J50PcvSuWQQLZSszyTHnqzFvRPUyDCXkptbWbZ
d8YJDeht3P2BsYChVoY/BE3GlYqSL5N87FncbawaV5sffkq++fUU9J/pp6VcdNPS
Ofme8wJ88gWvR9DrtyVQGC8jUVinyTkVazaUxn2FBGY7gnXjIwldIc57Usowc/j+
WyQUz0bQfqPIeENnRudAn2Wgd1hDXF1RaR8lqLIvviLnZcOI3Q0iWjkWAdzmsDOu
dYiCkNXRkzGkyJBy807Ibl873uULPYhGlX2u4XOACny5vpJDcYuLXE21XA1qJZ/o
4/wM6B6xUZU=
-----END CERTIFICATE-----
