Certificate:
    Data:
        Version: 3 (0x2)
        Serial Number: 305419905 (0x12345681)
    Signature Algorithm: sha256WithRSAEncryption
        Issuer: CN=CA1_sha256_2048_65537_v3_ca
        Validity
            Not Before: Jun 29 07:34:46 2018 GMT
            Not After : Jun 26 07:34:46 2028 GMT
        Subject: CN=SRK4_sha256_2048_65537_v3_ca
        Subject Public Key Info:
            Public Key Algorithm: rsaEncryption
                Public-Key: (2048 bit)
                Modulus:
                    00:b7:50:81:22:df:91:0a:d8:47:25:f4:1b:c4:10:
                    a3:55:52:8e:14:92:e6:97:ac:40:b1:33:42:c3:a9:
                    b1:62:45:a6:53:4a:84:51:2c:6a:1a:de:a3:48:1b:
                    aa:dc:a0:9a:cf:d1:74:48:7d:4d:e7:11:3a:13:e3:
                    1f:34:60:8f:70:13:44:6b:a0:11:60:3d:27:1f:0a:
                    d8:4d:e7:da:38:4d:b9:dc:44:28:c9:bc:18:29:4c:
                    e1:84:b6:f4:b7:69:08:3a:21:78:b1:36:33:03:ac:
                    a0:37:0a:28:72:40:ba:da:7a:45:e1:ef:fb:d5:99:
                    0b:fc:0a:53:b9:3d:64:1b:11:88:b6:94:13:06:62:
                    05:0f:40:02:dc:c3:83:38:8c:4e:5b:d6:36:ca:aa:
                    58:9b:ba:c5:b2:84:11:da:86:82:f0:92:6e:ed:2b:
                    79:57:0a:87:fc:2a:d4:06:f4:d8:23:6e:e8:ff:21:
                    ab:e3:32:9c:61:34:4a:cd:4f:f3:ad:72:16:7f:e8:
                    c0:44:ac:00:26:75:e6:4d:1a:70:2e:57:7a:fb:13:
                    24:47:fe:61:c0:f2:a7:7e:fa:71:43:8f:a9:7f:45:
                    10:0e:f0:97:a0:a8:43:7a:38:e7:99:5b:f7:50:85:
                    57:fd:9b:f1:38:00:92:62:c8:af:9a:9f:8b:1e:7f:
                    ec:09
                Exponent: 65537 (0x10001)
        X509v3 extensions:
            X509v3 Subject Key Identifier: 
                7B:E1:8F:E7:61:BA:F5:74:CA:C9:02:66:91:85:19:00:1E:51:39:AE
            X509v3 Authority Key Identifier: 
                keyid:81:7C:06:41:51:8A:B2:23:0C:CB:F2:91:2F:E6:F5:F6:3B:92:DC:BA
                DirName:/CN=CA1_sha256_2048_65537_v3_ca
                serial:E1:1C:A8:14:9D:5F:D4:47

            X509v3 Basic Constraints: critical
                CA:TRUE
            X509v3 Key Usage: 
                Certificate Sign
    Signature Algorithm: sha256WithRSAEncryption
         0a:bb:9c:c2:72:ba:c4:24:ba:c5:11:94:1e:e2:75:12:58:ac:
         e4:0b:d9:f9:f8:02:67:26:3f:d9:8c:45:bd:da:c0:8c:fb:b3:
         0a:64:03:d2:0d:15:39:53:bb:33:40:68:67:88:0c:c3:37:f1:
         aa:13:5b:70:e0:ef:2d:b7:3a:c3:f7:ca:58:e8:51:0f:d2:c4:
         a9:1c:b0:c4:0e:4f:e2:3c:a6:32:e1:59:95:86:b3:8f:e2:92:
         82:34:ca:c2:81:03:b9:f3:05:02:d2:f2:df:0c:d1:00:94:8b:
         b7:1a:b8:2c:9b:ef:d4:a4:85:19:f9:5f:a9:d2:2d:62:18:8d:
         47:af:fe:9b:ea:5d:00:0f:c3:d1:21:50:16:75:e4:b0:3a:ff:
         f8:dd:c9:1e:ed:e9:7a:68:23:f4:be:a7:0c:37:75:0b:c1:4a:
         1e:dd:da:5d:8d:d6:ec:34:30:dd:45:82:c0:55:87:cc:13:db:
         3f:9b:39:3c:95:d6:b1:72:4b:ad:83:ed:ea:a7:27:3f:c9:b7:
         fc:50:0d:3f:73:a6:7b:70:11:c9:5a:c9:cb:c7:e4:dc:ac:9c:
         2a:85:56:ae:62:f2:8c:7d:cd:d6:4f:59:f8:90:4f:0d:ff:3e:
         9c:b5:be:22:dc:fc:3b:0a:03:ed:b2:7f:53:19:d9:16:e0:c3:
         b5:b0:b9:f2
-----BEGIN CERTIFICATE-----
MIIDZDCCAkygAwIBAgIEEjRWgTANBgkqhkiG9w0BAQsFADAmMSQwIgYDVQQDFBtD
QTFfc2hhMjU2XzIwNDhfNjU1MzdfdjNfY2EwHhcNMTgwNjI5MDczNDQ2WhcNMjgw
NjI2MDczNDQ2WjAnMSUwIwYDVQQDDBxTUks0X3NoYTI1Nl8yMDQ4XzY1NTM3X3Yz
X2NhMIIBIjANBgkqhkiG9w0BAQEFAAOCAQ8AMIIBCgKCAQEAt1CBIt+RCthHJfQb
xBCjVVKOFJLml6xAsTNCw6mxYkWmU0qEUSxqGt6jSBuq3KCaz9F0SH1N5xE6E+Mf
NGCPcBNEa6ARYD0nHwrYTefaOE253EQoybwYKUzhhLb0t2kIOiF4sTYzA6ygNwoo
ckC62npF4e/71ZkL/ApTuT1kGxGItpQTBmIFD0AC3MODOIxOW9Y2yqpYm7rFsoQR
2oaC8JJu7St5VwqH/CrUBvTYI27o/yGr4zKcYTRKzU/zrXIWf+jARKwAJnXmTRpw
Lld6+xMkR/5hwPKnfvpxQ4+pf0UQDvCXoKhDejjnmVv3UIVX/ZvxOACSYsivmp+L
Hn/sCQIDAQABo4GYMIGVMB0GA1UdDgQWBBR74Y/nYbr1dMrJAmaRhRkAHlE5rjBW
BgNVHSMETzBNgBSBfAZBUYqyIwzL8pEv5vX2O5LcuqEqpCgwJjEkMCIGA1UEAxQb
Q0ExX3NoYTI1Nl8yMDQ4XzY1NTM3X3YzX2NhggkA4RyoFJ1f1EcwDwYDVR0TAQH/
BAUwAwEB/zALBgNVHQ8EBAMCAgQwDQYJKoZIhvcNAQELBQADggEBAAq7nMJyusQk
usURlB7idRJYrOQL2fn4AmcmP9mMRb3awIz7swpkA9INFTlTuzNAaGeIDMM38aoT
W3Dg7y23OsP3yljoUQ/SxKkcsMQOT+I8pjLhWZWGs4/ikoI0ysKBA7nzBQLS8t8M
0QCUi7cauCyb79SkhRn5X6nSLWIYjUev/pvqXQAPw9EhUBZ15LA6//jdyR7t6Xpo
I/S+pww3dQvBSh7d2l2N1uw0MN1FgsBVh8wT2z+bOTyV1rFyS62D7eqnJz/Jt/xQ
DT9zpntwEclaycvH5NysnCqFVq5i8ox9zdZPWfiQTw3/Ppy1viLc/DsKA+2yf1MZ
2Rbgw7WwufI=
-----END CERTIFICATE-----
